target datalayout = "e-m:e-p270:32:32-p271:32:32-p272:64:64-i64:64-i128:128-f80:128-n8:16:32:64-S128"
target triple = "x86_64-pc-linux-gnu"

@.str = private unnamed_addr constant [3 x i8] c"%d\00", align 1
@.str.1 = private unnamed_addr constant [2 x i8] c" \00", align 1

; Function Attrs: mustprogress nounwind uwtable
define internal noundef i64 @_ZN5faissL19uint64_reverse_bitsEm(i64 noundef %0) #5 {
  %2 = alloca i64, align 8
  %3 = alloca i32, align 4
  %4 = alloca i64, align 8
  store i64 %0, ptr %2, align 8, !tbaa !9
  call void @llvm.lifetime.start.p0(i64 4, ptr %3) #7
  call void @llvm.lifetime.start.p0(i64 8, ptr %4) #7
  store i64 0, ptr %4, align 8, !tbaa !9
  store i32 0, ptr %3, align 4, !tbaa !13
  br label %5

5:                                                ; preds = %17, %1
  %6 = load i32, ptr %3, align 4, !tbaa !13
  %7 = icmp slt i32 %6, 64
  br i1 %7, label %8, label %20

8:                                                ; preds = %5
  %9 = load i64, ptr %4, align 8, !tbaa !9
  %10 = shl i64 %9, 1
  store i64 %10, ptr %4, align 8, !tbaa !9
  %11 = load i64, ptr %2, align 8, !tbaa !9
  %12 = and i64 %11, 1
  %13 = load i64, ptr %4, align 8, !tbaa !9
  %14 = or i64 %13, %12
  store i64 %14, ptr %4, align 8, !tbaa !9
  %15 = load i64, ptr %2, align 8, !tbaa !9
  %16 = lshr i64 %15, 1
  store i64 %16, ptr %2, align 8, !tbaa !9
  br label %17

17:                                               ; preds = %8
  %18 = load i32, ptr %3, align 4, !tbaa !13
  %19 = add nsw i32 %18, 1
  store i32 %19, ptr %3, align 4, !tbaa !13
  br label %5, !llvm.loop !36

20:                                               ; preds = %5
  %21 = load i64, ptr %4, align 8, !tbaa !9
  call void @llvm.lifetime.end.p0(i64 8, ptr %4) #7
  call void @llvm.lifetime.end.p0(i64 4, ptr %3) #7
  ret i64 %21
}

; Function Attrs: mustprogress uwtable
define void @_ZN5faiss12bitvec_printEPKhm(ptr noundef %0, i64 noundef %1) #0 {
  %3 = alloca ptr, align 8
  %4 = alloca i64, align 8
  %5 = alloca i64, align 8
  %6 = alloca i64, align 8
  %7 = alloca i64, align 8
  store ptr %0, ptr %3, align 8, !tbaa !21
  store i64 %1, ptr %4, align 8, !tbaa !9
  call void @llvm.lifetime.start.p0(i64 8, ptr %5) #7
  call void @llvm.lifetime.start.p0(i64 8, ptr %6) #7
  store i64 0, ptr %5, align 8, !tbaa !9
  br label %8

8:                                                ; preds = %37, %2
  %9 = load i64, ptr %5, align 8, !tbaa !9
  %10 = load i64, ptr %4, align 8, !tbaa !9
  %11 = icmp ult i64 %9, %10
  br i1 %11, label %12, label %41

12:                                               ; preds = %8
  call void @llvm.lifetime.start.p0(i64 8, ptr %7) #7
  %13 = load ptr, ptr %3, align 8, !tbaa !21
  %14 = load i64, ptr %13, align 8, !tbaa !9
  %15 = call noundef i64 @_ZN5faissL19uint64_reverse_bitsEm(i64 noundef %14)
  store i64 %15, ptr %7, align 8, !tbaa !9
  store i64 0, ptr %6, align 8, !tbaa !9
  br label %16

16:                                               ; preds = %32, %12
  %17 = load i64, ptr %6, align 8, !tbaa !9
  %18 = icmp ult i64 %17, 64
  br i1 %18, label %19, label %23

19:                                               ; preds = %16
  %20 = load i64, ptr %5, align 8, !tbaa !9
  %21 = load i64, ptr %4, align 8, !tbaa !9
  %22 = icmp ult i64 %20, %21
  br label %23

23:                                               ; preds = %19, %16
  %24 = phi i1 [ false, %16 ], [ %22, %19 ]
  br i1 %24, label %25, label %37

25:                                               ; preds = %23
  %26 = load i64, ptr %7, align 8, !tbaa !9
  %27 = and i64 %26, 1
  %28 = trunc i64 %27 to i32
  %29 = call i32 (ptr, ...) @printf(ptr noundef @.str, i32 noundef %28)
  %30 = load i64, ptr %7, align 8, !tbaa !9
  %31 = lshr i64 %30, 1
  store i64 %31, ptr %7, align 8, !tbaa !9
  br label %32

32:                                               ; preds = %25
  %33 = load i64, ptr %6, align 8, !tbaa !9
  %34 = add i64 %33, 1
  store i64 %34, ptr %6, align 8, !tbaa !9
  %35 = load i64, ptr %5, align 8, !tbaa !9
  %36 = add i64 %35, 1
  store i64 %36, ptr %5, align 8, !tbaa !9
  br label %16, !llvm.loop !34

37:                                               ; preds = %23
  %38 = load ptr, ptr %3, align 8, !tbaa !21
  %39 = getelementptr inbounds i8, ptr %38, i64 8
  store ptr %39, ptr %3, align 8, !tbaa !21
  %40 = call i32 (ptr, ...) @printf(ptr noundef @.str.1)
  call void @llvm.lifetime.end.p0(i64 8, ptr %7) #7
  br label %8, !llvm.loop !35

41:                                               ; preds = %8
  call void @llvm.lifetime.end.p0(i64 8, ptr %6) #7
  call void @llvm.lifetime.end.p0(i64 8, ptr %5) #7
  ret void
}