; Function Attrs: mustprogress nofree nounwind uwtable
define void @_ZN5faiss12bitvec_printEPKhm(ptr noundef readonly captures(none) %0, i64 noundef %1) local_unnamed_addr #9 {
  %.not = icmp eq i64 %1, 0
  br i1 %.not, label %._crit_edge, label %.lr.ph19

.lr.ph19:                                         ; preds = %2, %_ZN5faissL19uint64_reverse_bitsEm.exit._crit_edge
  %.01118 = phi i64 [ %.1.lcssa, %_ZN5faissL19uint64_reverse_bitsEm.exit._crit_edge ], [ 0, %2 ]
  %.01217 = phi ptr [ %20, %_ZN5faissL19uint64_reverse_bitsEm.exit._crit_edge ], [ %0, %2 ]
  %3 = load i64, ptr %.01217, align 8, !tbaa !4
  br label %4

4:                                                ; preds = %4, %.lr.ph19
  %.011.i = phi i64 [ 0, %.lr.ph19 ], [ %7, %4 ]
  %.0710.i = phi i32 [ 0, %.lr.ph19 ], [ %9, %4 ]
  %.089.i = phi i64 [ %3, %.lr.ph19 ], [ %8, %4 ]
  %5 = shl i64 %.011.i, 1
  %6 = and i64 %.089.i, 1
  %7 = or disjoint i64 %6, %5
  %8 = lshr i64 %.089.i, 1
  %9 = add nuw nsw i32 %.0710.i, 1
  %exitcond.not.i = icmp eq i32 %9, 64
  br i1 %exitcond.not.i, label %_ZN5faissL19uint64_reverse_bitsEm.exit.preheader, label %4, !llvm.loop !33

_ZN5faissL19uint64_reverse_bitsEm.exit.preheader: ; preds = %4
  %10 = icmp ult i64 %.01118, %1
  br i1 %10, label %_ZN5faissL19uint64_reverse_bitsEm.exit, label %_ZN5faissL19uint64_reverse_bitsEm.exit._crit_edge

_ZN5faissL19uint64_reverse_bitsEm.exit:           ; preds = %_ZN5faissL19uint64_reverse_bitsEm.exit.preheader, %_ZN5faissL19uint64_reverse_bitsEm.exit
  %.016 = phi i64 [ %14, %_ZN5faissL19uint64_reverse_bitsEm.exit ], [ %7, %_ZN5faissL19uint64_reverse_bitsEm.exit.preheader ]
  %.01015 = phi i64 [ %15, %_ZN5faissL19uint64_reverse_bitsEm.exit ], [ 0, %_ZN5faissL19uint64_reverse_bitsEm.exit.preheader ]
  %.114 = phi i64 [ %16, %_ZN5faissL19uint64_reverse_bitsEm.exit ], [ %.01118, %_ZN5faissL19uint64_reverse_bitsEm.exit.preheader ]
  %11 = trunc i64 %.016 to i32
  %12 = and i32 %11, 1
  %13 = tail call i32 (ptr, ...) @printf(ptr noundef nonnull dereferenceable(1) @.str, i32 noundef %12)
  %14 = lshr i64 %.016, 1
  %15 = add nuw nsw i64 %.01015, 1
  %16 = add nuw i64 %.114, 1
  %17 = icmp samesign ult i64 %.01015, 63
  %18 = icmp ult i64 %16, %1
  %19 = select i1 %17, i1 %18, i1 false
  br i1 %19, label %_ZN5faissL19uint64_reverse_bitsEm.exit, label %_ZN5faissL19uint64_reverse_bitsEm.exit._crit_edge, !llvm.loop !34

_ZN5faissL19uint64_reverse_bitsEm.exit._crit_edge: ; preds = %_ZN5faissL19uint64_reverse_bitsEm.exit, %_ZN5faissL19uint64_reverse_bitsEm.exit.preheader
  %.1.lcssa = phi i64 [ %.01118, %_ZN5faissL19uint64_reverse_bitsEm.exit.preheader ], [ %16, %_ZN5faissL19uint64_reverse_bitsEm.exit ]
  %20 = getelementptr inbounds nuw i8, ptr %.01217, i64 8
  %putchar = tail call i32 @putchar(i32 32)
  %21 = icmp ult i64 %.1.lcssa, %1
  br i1 %21, label %.lr.ph19, label %._crit_edge, !llvm.loop !35

._crit_edge:                                      ; preds = %_ZN5faissL19uint64_reverse_bitsEm.exit._crit_edge, %2
  ret void
}